target datalayout = "e-m:e-p270:32:32-p271:32:32-p272:64:64-i64:64-i128:128-f80:128-n8:16:32:64-S128"
target triple = "x86_64-pc-linux-gnu"

%struct.gmx_sparsematrix = type { i8, i32, ptr, ptr, ptr }

@.str = private unnamed_addr constant [2 x i8] c"A\00", align 1
@.str.1 = private unnamed_addr constant [136 x i8] c"generated/home/dtcxzyw/WorkSpace/Projects/compilers/llvm-opt-benchmark/bench/gromacs/gromacs/src/gromacs/linearalgebra/sparsematrix.cpp\00", align 1
@.str.2 = private unnamed_addr constant [9 x i8] c"A->ndata\00", align 1
@.str.3 = private unnamed_addr constant [10 x i8] c"A->nalloc\00", align 1
@.str.4 = private unnamed_addr constant [8 x i8] c"A->data\00", align 1

; Function Attrs: inlinehint mustprogress uwtable
define internal void @_ZL13gmx_snew_implIP22gmx_sparsematrix_entryEvPKcS3_iRPT_m(ptr noundef %0, ptr noundef %1, i32 noundef %2, ptr noundef nonnull align 8 dereferenceable(8) %3, i64 noundef %4) #2 {
  %6 = alloca ptr, align 8
  %7 = alloca ptr, align 8
  %8 = alloca i32, align 4
  %9 = alloca ptr, align 8
  %10 = alloca i64, align 8
  store ptr %0, ptr %6, align 8, !tbaa !23
  store ptr %1, ptr %7, align 8, !tbaa !23
  store i32 %2, ptr %8, align 4, !tbaa !3
  store ptr %3, ptr %9, align 8, !tbaa !32
  store i64 %4, ptr %10, align 8, !tbaa !27
  %11 = load ptr, ptr %6, align 8, !tbaa !23
  %12 = load ptr, ptr %7, align 8, !tbaa !23
  %13 = load i32, ptr %8, align 4, !tbaa !3
  %14 = load i64, ptr %10, align 8, !tbaa !27
  %15 = call noundef ptr @_Z11save_callocPKcS0_imm(ptr noundef %11, ptr noundef %12, i32 noundef %13, i64 noundef %14, i64 noundef 8)
  %16 = load ptr, ptr %9, align 8, !tbaa !32
  store ptr %15, ptr %16, align 8, !tbaa !35
  ret void
}

; Function Attrs: inlinehint mustprogress uwtable
define internal void @_ZL13gmx_snew_implIiEvPKcS1_iRPT_m(ptr noundef %0, ptr noundef %1, i32 noundef %2, ptr noundef nonnull align 8 dereferenceable(8) %3, i64 noundef %4) #2 {
  %6 = alloca ptr, align 8
  %7 = alloca ptr, align 8
  %8 = alloca i32, align 4
  %9 = alloca ptr, align 8
  %10 = alloca i64, align 8
  store ptr %0, ptr %6, align 8, !tbaa !23
  store ptr %1, ptr %7, align 8, !tbaa !23
  store i32 %2, ptr %8, align 4, !tbaa !3
  store ptr %3, ptr %9, align 8, !tbaa !29
  store i64 %4, ptr %10, align 8, !tbaa !27
  %11 = load ptr, ptr %6, align 8, !tbaa !23
  %12 = load ptr, ptr %7, align 8, !tbaa !23
  %13 = load i32, ptr %8, align 4, !tbaa !3
  %14 = load i64, ptr %10, align 8, !tbaa !27
  %15 = call noundef ptr @_Z11save_callocPKcS0_imm(ptr noundef %11, ptr noundef %12, i32 noundef %13, i64 noundef %14, i64 noundef 4)
  %16 = load ptr, ptr %9, align 8, !tbaa !29
  store ptr %15, ptr %16, align 8, !tbaa !31
  ret void
}

; Function Attrs: inlinehint mustprogress uwtable
define internal void @_ZL13gmx_snew_implI16gmx_sparsematrixEvPKcS2_iRPT_m(ptr noundef %0, ptr noundef %1, i32 noundef %2, ptr noundef nonnull align 8 dereferenceable(8) %3, i64 noundef %4) #2 {
  %6 = alloca ptr, align 8
  %7 = alloca ptr, align 8
  %8 = alloca i32, align 4
  %9 = alloca ptr, align 8
  %10 = alloca i64, align 8
  store ptr %0, ptr %6, align 8, !tbaa !23
  store ptr %1, ptr %7, align 8, !tbaa !23
  store i32 %2, ptr %8, align 4, !tbaa !3
  store ptr %3, ptr %9, align 8, !tbaa !25
  store i64 %4, ptr %10, align 8, !tbaa !27
  %11 = load ptr, ptr %6, align 8, !tbaa !23
  %12 = load ptr, ptr %7, align 8, !tbaa !23
  %13 = load i32, ptr %8, align 4, !tbaa !3
  %14 = load i64, ptr %10, align 8, !tbaa !27
  %15 = call noundef ptr @_Z11save_callocPKcS0_imm(ptr noundef %11, ptr noundef %12, i32 noundef %13, i64 noundef %14, i64 noundef 32)
  %16 = load ptr, ptr %9, align 8, !tbaa !25
  store ptr %15, ptr %16, align 8, !tbaa !7
  ret void
}

; Function Attrs: mustprogress uwtable
define noundef ptr @_Z21gmx_sparsematrix_initi(i32 noundef %0) #0 {
  %2 = alloca i32, align 4
  %3 = alloca i32, align 4
  %4 = alloca ptr, align 8
  store i32 %0, ptr %2, align 4, !tbaa !3
  call void @llvm.lifetime.start.p0(i64 4, ptr %3) #7
  call void @llvm.lifetime.start.p0(i64 8, ptr %4) #7
  call void @_ZL13gmx_snew_implI16gmx_sparsematrixEvPKcS2_iRPT_m(ptr noundef @.str, ptr noundef @.str.1, i32 noundef 51, ptr noundef nonnull align 8 dereferenceable(8) %4, i64 noundef 1)
  %5 = load i32, ptr %2, align 4, !tbaa !3
  %6 = load ptr, ptr %4, align 8, !tbaa !7
  %7 = getelementptr inbounds nuw %struct.gmx_sparsematrix, ptr %6, i32 0, i32 1
  store i32 %5, ptr %7, align 4, !tbaa !10
  %8 = load ptr, ptr %4, align 8, !tbaa !7
  %9 = getelementptr inbounds nuw %struct.gmx_sparsematrix, ptr %8, i32 0, i32 2
  %10 = load i32, ptr %2, align 4, !tbaa !3
  %11 = sext i32 %10 to i64
  call void @_ZL13gmx_snew_implIiEvPKcS1_iRPT_m(ptr noundef @.str.2, ptr noundef @.str.1, i32 noundef 54, ptr noundef nonnull align 8 dereferenceable(8) %9, i64 noundef %11)
  %12 = load ptr, ptr %4, align 8, !tbaa !7
  %13 = getelementptr inbounds nuw %struct.gmx_sparsematrix, ptr %12, i32 0, i32 3
  %14 = load i32, ptr %2, align 4, !tbaa !3
  %15 = sext i32 %14 to i64
  call void @_ZL13gmx_snew_implIiEvPKcS1_iRPT_m(ptr noundef @.str.3, ptr noundef @.str.1, i32 noundef 55, ptr noundef nonnull align 8 dereferenceable(8) %13, i64 noundef %15)
  %16 = load ptr, ptr %4, align 8, !tbaa !7
  %17 = getelementptr inbounds nuw %struct.gmx_sparsematrix, ptr %16, i32 0, i32 4
  %18 = load i32, ptr %2, align 4, !tbaa !3
  %19 = sext i32 %18 to i64
  call void @_ZL13gmx_snew_implIP22gmx_sparsematrix_entryEvPKcS3_iRPT_m(ptr noundef @.str.4, ptr noundef @.str.1, i32 noundef 56, ptr noundef nonnull align 8 dereferenceable(8) %17, i64 noundef %19)
  store i32 0, ptr %3, align 4, !tbaa !3
  br label %20

20:                                               ; preds = %43, %1
  %21 = load i32, ptr %3, align 4, !tbaa !3
  %22 = load i32, ptr %2, align 4, !tbaa !3
  %23 = icmp slt i32 %21, %22
  br i1 %23, label %24, label %46

24:                                               ; preds = %20
  %25 = load ptr, ptr %4, align 8, !tbaa !7
  %26 = getelementptr inbounds nuw %struct.gmx_sparsematrix, ptr %25, i32 0, i32 2
  %27 = load ptr, ptr %26, align 8, !tbaa !16
  %28 = load i32, ptr %3, align 4, !tbaa !3
  %29 = sext i32 %28 to i64
  %30 = getelementptr inbounds i32, ptr %27, i64 %29
  store i32 0, ptr %30, align 4, !tbaa !3
  %31 = load ptr, ptr %4, align 8, !tbaa !7
  %32 = getelementptr inbounds nuw %struct.gmx_sparsematrix, ptr %31, i32 0, i32 3
  %33 = load ptr, ptr %32, align 8, !tbaa !17
  %34 = load i32, ptr %3, align 4, !tbaa !3
  %35 = sext i32 %34 to i64
  %36 = getelementptr inbounds i32, ptr %33, i64 %35
  store i32 0, ptr %36, align 4, !tbaa !3
  %37 = load ptr, ptr %4, align 8, !tbaa !7
  %38 = getelementptr inbounds nuw %struct.gmx_sparsematrix, ptr %37, i32 0, i32 4
  %39 = load ptr, ptr %38, align 8, !tbaa !18
  %40 = load i32, ptr %3, align 4, !tbaa !3
  %41 = sext i32 %40 to i64
  %42 = getelementptr inbounds ptr, ptr %39, i64 %41
  store ptr null, ptr %42, align 8, !tbaa !19
  br label %43

43:                                               ; preds = %24
  %44 = load i32, ptr %3, align 4, !tbaa !3
  %45 = add nsw i32 %44, 1
  store i32 %45, ptr %3, align 4, !tbaa !3
  br label %20, !llvm.loop !21

46:                                               ; preds = %20
  %47 = load ptr, ptr %4, align 8, !tbaa !7
  call void @llvm.lifetime.end.p0(i64 8, ptr %4) #7
  call void @llvm.lifetime.end.p0(i64 4, ptr %3) #7
  ret ptr %47
}