; Function Attrs: mustprogress uwtable
define noundef ptr @_Z21gmx_sparsematrix_initi(i32 noundef %0) local_unnamed_addr #0 {
  %2 = tail call noundef ptr @_Z11save_callocPKcS0_imm(ptr noundef nonnull @.str, ptr noundef nonnull @.str.1, i32 noundef 51, i64 noundef 1, i64 noundef 32)
  %3 = getelementptr inbounds nuw i8, ptr %2, i64 4
  store i32 %0, ptr %3, align 4, !tbaa !3
  %4 = getelementptr inbounds nuw i8, ptr %2, i64 8
  %5 = sext i32 %0 to i64
  %6 = tail call noundef ptr @_Z11save_callocPKcS0_imm(ptr noundef nonnull @.str.2, ptr noundef nonnull @.str.1, i32 noundef 54, i64 noundef range(i64 -2147483648, 2147483648) %5, i64 noundef 4)
  store ptr %6, ptr %4, align 8, !tbaa !13
  %7 = getelementptr inbounds nuw i8, ptr %2, i64 16
  %8 = tail call noundef ptr @_Z11save_callocPKcS0_imm(ptr noundef nonnull @.str.3, ptr noundef nonnull @.str.1, i32 noundef 55, i64 noundef range(i64 -2147483648, 2147483648) %5, i64 noundef 4)
  store ptr %8, ptr %7, align 8, !tbaa !13
  %9 = getelementptr inbounds nuw i8, ptr %2, i64 24
  %10 = tail call noundef ptr @_Z11save_callocPKcS0_imm(ptr noundef nonnull @.str.4, ptr noundef nonnull @.str.1, i32 noundef 56, i64 noundef range(i64 -2147483648, 2147483648) %5, i64 noundef 8)
  store ptr %10, ptr %9, align 8, !tbaa !14
  %11 = icmp sgt i32 %0, 0
  br i1 %11, label %.lr.ph, label %._crit_edge

.lr.ph:                                           ; preds = %1
  %12 = load ptr, ptr %4, align 8, !tbaa !15
  %13 = load ptr, ptr %7, align 8, !tbaa !16
  %wide.trip.count = zext nneg i32 %0 to i64
  br label %14

14:                                               ; preds = %.lr.ph, %14
  %indvars.iv = phi i64 [ 0, %.lr.ph ], [ %indvars.iv.next, %14 ]
  %15 = getelementptr inbounds nuw i32, ptr %12, i64 %indvars.iv
  store i32 0, ptr %15, align 4, !tbaa !17
  %16 = getelementptr inbounds nuw i32, ptr %13, i64 %indvars.iv
  store i32 0, ptr %16, align 4, !tbaa !17
  %17 = getelementptr inbounds nuw ptr, ptr %10, i64 %indvars.iv
  store ptr null, ptr %17, align 8, !tbaa !18
  %indvars.iv.next = add nuw nsw i64 %indvars.iv, 1
  %exitcond.not = icmp eq i64 %indvars.iv.next, %wide.trip.count
  br i1 %exitcond.not, label %._crit_edge, label %14, !llvm.loop !20

._crit_edge:                                      ; preds = %14, %1
  ret ptr %2
}